target datalayout = "e-m:e-p270:32:32-p271:32:32-p272:64:64-i64:64-i128:128-f80:128-n8:16:32:64-S128"
target triple = "x86_64-pc-linux-gnu"

%struct._object = type { %union.anon, ptr }
%union.anon = type { i64 }
%struct.SHA3object = type { %struct._object, i8, %struct.PyMutex, ptr }
%struct.PyMutex = type { i8 }

; Function Attrs: inlinehint nounwind uwtable
define internal i32 @_Py_atomic_compare_exchange_uint8(ptr noundef %0, ptr noundef %1, i8 noundef zeroext %2) #3 {
  %4 = alloca ptr, align 8
  %5 = alloca ptr, align 8
  %6 = alloca i8, align 1
  %7 = alloca i8, align 1
  %8 = alloca i8, align 1
  store ptr %0, ptr %4, align 8, !tbaa !56
  store ptr %1, ptr %5, align 8, !tbaa !56
  store i8 %2, ptr %6, align 1, !tbaa !41
  %9 = load ptr, ptr %4, align 8, !tbaa !56
  %10 = load ptr, ptr %5, align 8, !tbaa !56
  %11 = load i8, ptr %6, align 1, !tbaa !41
  store i8 %11, ptr %7, align 1, !tbaa !41
  %12 = load i8, ptr %10, align 1
  %13 = load i8, ptr %7, align 1
  %14 = cmpxchg ptr %9, i8 %12, i8 %13 seq_cst seq_cst, align 1
  %15 = extractvalue { i8, i1 } %14, 0
  %16 = extractvalue { i8, i1 } %14, 1
  br i1 %16, label %18, label %17

17:                                               ; preds = %3
  store i8 %15, ptr %10, align 1
  br label %18

18:                                               ; preds = %17, %3
  %19 = zext i1 %16 to i8
  store i8 %19, ptr %8, align 1, !tbaa !57
  %20 = load i8, ptr %8, align 1, !tbaa !57, !range !46, !noundef !47
  %21 = trunc i8 %20 to i1
  %22 = zext i1 %21 to i32
  ret i32 %22
}

; Function Attrs: inlinehint nounwind uwtable
define internal void @_PyMutex_Unlock(ptr noundef %0) #3 {
  %2 = alloca ptr, align 8
  %3 = alloca i8, align 1
  store ptr %0, ptr %2, align 8, !tbaa !54
  call void @llvm.lifetime.start.p0(i64 1, ptr %3) #7
  store i8 1, ptr %3, align 1, !tbaa !41
  %4 = load ptr, ptr %2, align 8, !tbaa !54
  %5 = getelementptr inbounds nuw %struct.PyMutex, ptr %4, i32 0, i32 0
  %6 = call i32 @_Py_atomic_compare_exchange_uint8(ptr noundef %5, ptr noundef %3, i8 noundef zeroext 0)
  %7 = icmp ne i32 %6, 0
  br i1 %7, label %10, label %8

8:                                                ; preds = %1
  %9 = load ptr, ptr %2, align 8, !tbaa !54
  call void @PyMutex_Unlock(ptr noundef %9)
  br label %10

10:                                               ; preds = %8, %1
  call void @llvm.lifetime.end.p0(i64 1, ptr %3) #7
  ret void
}

; Function Attrs: inlinehint nounwind uwtable
define internal void @_PyMutex_Lock(ptr noundef %0) #3 {
  %2 = alloca ptr, align 8
  %3 = alloca i8, align 1
  store ptr %0, ptr %2, align 8, !tbaa !54
  call void @llvm.lifetime.start.p0(i64 1, ptr %3) #7
  store i8 0, ptr %3, align 1, !tbaa !41
  %4 = load ptr, ptr %2, align 8, !tbaa !54
  %5 = getelementptr inbounds nuw %struct.PyMutex, ptr %4, i32 0, i32 0
  %6 = call i32 @_Py_atomic_compare_exchange_uint8(ptr noundef %5, ptr noundef %3, i8 noundef zeroext 1)
  %7 = icmp ne i32 %6, 0
  br i1 %7, label %10, label %8

8:                                                ; preds = %1
  %9 = load ptr, ptr %2, align 8, !tbaa !54
  call void @PyMutex_Lock(ptr noundef %9)
  br label %10

10:                                               ; preds = %8, %1
  call void @llvm.lifetime.end.p0(i64 1, ptr %3) #7
  ret void
}

; Function Attrs: nounwind uwtable
define internal ptr @_sha3_sha3_224_digest_impl(ptr noundef %0) #0 {
  %2 = alloca ptr, align 8
  %3 = alloca [64 x i8], align 16
  store ptr %0, ptr %2, align 8, !tbaa !8
  call void @llvm.lifetime.start.p0(i64 64, ptr %3) #7
  %4 = load ptr, ptr %2, align 8, !tbaa !8
  %5 = getelementptr inbounds nuw %struct.SHA3object, ptr %4, i32 0, i32 1
  %6 = load i8, ptr %5, align 8, !tbaa !45, !range !46, !noundef !47
  %7 = trunc i8 %6 to i1
  br i1 %7, label %8, label %11

8:                                                ; preds = %1
  %9 = load ptr, ptr %2, align 8, !tbaa !8
  %10 = getelementptr inbounds nuw %struct.SHA3object, ptr %9, i32 0, i32 2
  call void @_PyMutex_Lock(ptr noundef %10)
  br label %11

11:                                               ; preds = %8, %1
  %12 = load ptr, ptr %2, align 8, !tbaa !8
  %13 = getelementptr inbounds nuw %struct.SHA3object, ptr %12, i32 0, i32 3
  %14 = load ptr, ptr %13, align 8, !tbaa !22
  %15 = getelementptr inbounds [64 x i8], ptr %3, i64 0, i64 0
  %16 = call zeroext i8 @python_hashlib_Hacl_Hash_SHA3_digest(ptr noundef %14, ptr noundef %15)
  %17 = load ptr, ptr %2, align 8, !tbaa !8
  %18 = getelementptr inbounds nuw %struct.SHA3object, ptr %17, i32 0, i32 1
  %19 = load i8, ptr %18, align 8, !tbaa !45, !range !46, !noundef !47
  %20 = trunc i8 %19 to i1
  br i1 %20, label %21, label %24

21:                                               ; preds = %11
  %22 = load ptr, ptr %2, align 8, !tbaa !8
  %23 = getelementptr inbounds nuw %struct.SHA3object, ptr %22, i32 0, i32 2
  call void @_PyMutex_Unlock(ptr noundef %23)
  br label %24

24:                                               ; preds = %21, %11
  %25 = getelementptr inbounds [64 x i8], ptr %3, i64 0, i64 0
  %26 = load ptr, ptr %2, align 8, !tbaa !8
  %27 = getelementptr inbounds nuw %struct.SHA3object, ptr %26, i32 0, i32 3
  %28 = load ptr, ptr %27, align 8, !tbaa !22
  %29 = call i32 @python_hashlib_Hacl_Hash_SHA3_hash_len(ptr noundef %28)
  %30 = zext i32 %29 to i64
  %31 = call ptr @PyBytes_FromStringAndSize(ptr noundef %25, i64 noundef %30)
  call void @llvm.lifetime.end.p0(i64 64, ptr %3) #7
  ret ptr %31
}

; Function Attrs: nounwind uwtable
define internal ptr @_sha3_sha3_224_digest(ptr noundef %0, ptr noundef %1) #0 {
  %3 = alloca ptr, align 8
  %4 = alloca ptr, align 8
  store ptr %0, ptr %3, align 8, !tbaa !3
  store ptr %1, ptr %4, align 8, !tbaa !3
  %5 = load ptr, ptr %3, align 8, !tbaa !3
  %6 = call ptr @_sha3_sha3_224_digest_impl(ptr noundef %5)
  ret ptr %6
}